target datalayout = "e-m:e-p270:32:32-p271:32:32-p272:64:64-i64:64-i128:128-f80:128-n8:16:32:64-S128"
target triple = "x86_64-pc-linux-gnu"

%union.pthread_attr_t = type { i64, [48 x i8] }
%struct.conmgr_callback_args_t = type { ptr, i32 }

@.str.15 = private unnamed_addr constant [11 x i8] c"_on_sighup\00", align 1
@.str.34 = private unnamed_addr constant [22 x i8] c"pthread_attr_init: %m\00", align 1
@.str.35 = private unnamed_addr constant [26 x i8] c"pthread_attr_setscope: %m\00", align 1
@.str.36 = private unnamed_addr constant [30 x i8] c"pthread_attr_setstacksize: %m\00", align 1
@.str.37 = private unnamed_addr constant [35 x i8] c"%s: pthread_attr_setdetachstate %m\00", align 1
@.str.38 = private unnamed_addr constant [28 x i8] c"%s: pthread_create error %m\00", align 1
@.str.39 = private unnamed_addr constant [55 x i8] c"pthread_attr_destroy failed, possible memory leak!: %m\00", align 1
@.str.57 = private unnamed_addr constant [39 x i8] c"Caught SIGHUP. Triggering reconfigure.\00", align 1

; Function Attrs: nounwind uwtable
define internal void @_on_sighup(ptr %0, i32 %1, ptr noundef %2) #0 {
  %4 = alloca %struct.conmgr_callback_args_t, align 8
  %5 = alloca ptr, align 8
  %6 = alloca i64, align 8
  %7 = alloca %union.pthread_attr_t, align 8
  %8 = alloca i32, align 4
  %9 = alloca i32, align 4
  %10 = alloca i32, align 4
  %11 = getelementptr inbounds nuw { ptr, i32 }, ptr %4, i32 0, i32 0
  store ptr %0, ptr %11, align 8
  %12 = getelementptr inbounds nuw { ptr, i32 }, ptr %4, i32 0, i32 1
  store i32 %1, ptr %12, align 8
  store ptr %2, ptr %5, align 8
  %13 = getelementptr inbounds nuw %struct.conmgr_callback_args_t, ptr %4, i32 0, i32 1
  %14 = load i32, ptr %13, align 8
  %15 = icmp eq i32 %14, 3
  br i1 %15, label %16, label %17

16:                                               ; preds = %3
  br label %78

17:                                               ; preds = %3
  br label %18

18:                                               ; preds = %17
  br label %19

19:                                               ; preds = %18
  %20 = call i32 @get_log_level()
  %21 = icmp sge i32 %20, 3
  br i1 %21, label %22, label %23

22:                                               ; preds = %19
  call void (i32, ptr, ...) @log_var(i32 noundef 3, ptr noundef @.str.57)
  br label %23

23:                                               ; preds = %22, %19
  br label %24

24:                                               ; preds = %23
  br label %25

25:                                               ; preds = %24
  br label %26

26:                                               ; preds = %25
  call void @llvm.lifetime.start.p0(i64 8, ptr %6) #11
  call void @llvm.lifetime.start.p0(i64 56, ptr %7) #11
  call void @llvm.lifetime.start.p0(i64 4, ptr %8) #11
  br label %27

27:                                               ; preds = %26
  call void @llvm.lifetime.start.p0(i64 4, ptr %9) #11
  %28 = call i32 @pthread_attr_init(ptr noundef %7) #11
  store i32 %28, ptr %9, align 4
  %29 = load i32, ptr %9, align 4
  %30 = icmp ne i32 %29, 0
  br i1 %30, label %31, label %34

31:                                               ; preds = %27
  %32 = load i32, ptr %9, align 4
  %33 = call ptr @__errno_location() #15
  store i32 %32, ptr %33, align 4
  call void (ptr, ...) @fatal(ptr noundef @.str.34) #12
  unreachable

34:                                               ; preds = %27
  %35 = call i32 @pthread_attr_setscope(ptr noundef %7, i32 noundef 0) #11
  store i32 %35, ptr %9, align 4
  %36 = load i32, ptr %9, align 4
  %37 = icmp ne i32 %36, 0
  br i1 %37, label %38, label %42

38:                                               ; preds = %34
  %39 = load i32, ptr %9, align 4
  %40 = call ptr @__errno_location() #15
  store i32 %39, ptr %40, align 4
  %41 = call i32 (ptr, ...) @error(ptr noundef @.str.35)
  br label %42

42:                                               ; preds = %38, %34
  %43 = call i32 @pthread_attr_setstacksize(ptr noundef %7, i64 noundef 1048576) #11
  store i32 %43, ptr %9, align 4
  %44 = load i32, ptr %9, align 4
  %45 = icmp ne i32 %44, 0
  br i1 %45, label %46, label %50

46:                                               ; preds = %42
  %47 = load i32, ptr %9, align 4
  %48 = call ptr @__errno_location() #15
  store i32 %47, ptr %48, align 4
  %49 = call i32 (ptr, ...) @error(ptr noundef @.str.36)
  br label %50

50:                                               ; preds = %46, %42
  call void @llvm.lifetime.end.p0(i64 4, ptr %9) #11
  br label %51

51:                                               ; preds = %50
  br label %52

52:                                               ; preds = %51
  %53 = call i32 @pthread_attr_setdetachstate(ptr noundef %7, i32 noundef 1) #11
  store i32 %53, ptr %8, align 4
  %54 = load i32, ptr %8, align 4
  %55 = icmp ne i32 %54, 0
  br i1 %55, label %56, label %59

56:                                               ; preds = %52
  %57 = load i32, ptr %8, align 4
  %58 = call ptr @__errno_location() #15
  store i32 %57, ptr %58, align 4
  call void (ptr, ...) @fatal(ptr noundef @.str.37, ptr noundef @.str.15) #12
  unreachable

59:                                               ; preds = %52
  %60 = call i32 @pthread_create(ptr noundef %6, ptr noundef %7, ptr noundef @_try_to_reconfig, ptr noundef null) #11
  store i32 %60, ptr %8, align 4
  %61 = load i32, ptr %8, align 4
  %62 = icmp ne i32 %61, 0
  br i1 %62, label %63, label %66

63:                                               ; preds = %59
  %64 = load i32, ptr %8, align 4
  %65 = call ptr @__errno_location() #15
  store i32 %64, ptr %65, align 4
  call void (ptr, ...) @fatal(ptr noundef @.str.38, ptr noundef @.str.15) #12
  unreachable

66:                                               ; preds = %59
  br label %67

67:                                               ; preds = %66
  call void @llvm.lifetime.start.p0(i64 4, ptr %10) #11
  %68 = call i32 @pthread_attr_destroy(ptr noundef %7) #11
  store i32 %68, ptr %10, align 4
  %69 = load i32, ptr %10, align 4
  %70 = icmp ne i32 %69, 0
  br i1 %70, label %71, label %75

71:                                               ; preds = %67
  %72 = load i32, ptr %10, align 4
  %73 = call ptr @__errno_location() #15
  store i32 %72, ptr %73, align 4
  %74 = call i32 (ptr, ...) @error(ptr noundef @.str.39)
  br label %75

75:                                               ; preds = %71, %67
  call void @llvm.lifetime.end.p0(i64 4, ptr %10) #11
  br label %76

76:                                               ; preds = %75
  br label %77

77:                                               ; preds = %76
  call void @llvm.lifetime.end.p0(i64 4, ptr %8) #11
  call void @llvm.lifetime.end.p0(i64 56, ptr %7) #11
  call void @llvm.lifetime.end.p0(i64 8, ptr %6) #11
  br label %78

78:                                               ; preds = %16, %77
  ret void
}