; Function Attrs: nounwind uwtable
define internal void @_on_sighup(ptr readnone captures(none) %0, i32 %1, ptr readnone captures(none) %2) #0 {
  %4 = alloca i64, align 8
  %5 = alloca %union.pthread_attr_t, align 8
  %6 = icmp eq i32 %1, 3
  br i1 %6, label %39, label %7

7:                                                ; preds = %3
  %8 = tail call i32 @get_log_level() #18
  %9 = icmp sgt i32 %8, 2
  br i1 %9, label %10, label %11

10:                                               ; preds = %7
  tail call void (i32, ptr, ...) @log_var(i32 noundef 3, ptr noundef nonnull @.str.57) #18
  br label %11

11:                                               ; preds = %7, %10
  call void @llvm.lifetime.start.p0(i64 8, ptr nonnull %4) #18
  call void @llvm.lifetime.start.p0(i64 56, ptr nonnull %5) #18
  %12 = call i32 @pthread_attr_init(ptr noundef nonnull %5) #18
  %.not = icmp eq i32 %12, 0
  br i1 %.not, label %15, label %13

13:                                               ; preds = %11
  %14 = tail call ptr @__errno_location() #21
  store i32 %12, ptr %14, align 4
  call void (ptr, ...) @fatal(ptr noundef nonnull @.str.34) #19
  unreachable

15:                                               ; preds = %11
  %16 = call i32 @pthread_attr_setscope(ptr noundef nonnull %5, i32 noundef 0) #18
  %.not17 = icmp eq i32 %16, 0
  br i1 %.not17, label %20, label %17

17:                                               ; preds = %15
  %18 = tail call ptr @__errno_location() #21
  store i32 %16, ptr %18, align 4
  %19 = call i32 (ptr, ...) @error(ptr noundef nonnull @.str.35) #18
  br label %20

20:                                               ; preds = %17, %15
  %21 = call i32 @pthread_attr_setstacksize(ptr noundef nonnull %5, i64 noundef 1048576) #18
  %.not18 = icmp eq i32 %21, 0
  br i1 %.not18, label %25, label %22

22:                                               ; preds = %20
  %23 = tail call ptr @__errno_location() #21
  store i32 %21, ptr %23, align 4
  %24 = call i32 (ptr, ...) @error(ptr noundef nonnull @.str.36) #18
  br label %25

25:                                               ; preds = %22, %20
  %26 = call i32 @pthread_attr_setdetachstate(ptr noundef nonnull %5, i32 noundef 1) #18
  %.not19 = icmp eq i32 %26, 0
  br i1 %.not19, label %29, label %27

27:                                               ; preds = %25
  %28 = tail call ptr @__errno_location() #21
  store i32 %26, ptr %28, align 4
  call void (ptr, ...) @fatal(ptr noundef nonnull @.str.37, ptr noundef nonnull @.str.15) #19
  unreachable

29:                                               ; preds = %25
  %30 = call i32 @pthread_create(ptr noundef nonnull %4, ptr noundef nonnull %5, ptr noundef nonnull @_try_to_reconfig, ptr noundef null) #18
  %.not20 = icmp eq i32 %30, 0
  br i1 %.not20, label %33, label %31

31:                                               ; preds = %29
  %32 = tail call ptr @__errno_location() #21
  store i32 %30, ptr %32, align 4
  call void (ptr, ...) @fatal(ptr noundef nonnull @.str.38, ptr noundef nonnull @.str.15) #19
  unreachable

33:                                               ; preds = %29
  %34 = call i32 @pthread_attr_destroy(ptr noundef nonnull %5) #18
  %.not21 = icmp eq i32 %34, 0
  br i1 %.not21, label %38, label %35

35:                                               ; preds = %33
  %36 = tail call ptr @__errno_location() #21
  store i32 %34, ptr %36, align 4
  %37 = call i32 (ptr, ...) @error(ptr noundef nonnull @.str.39) #18
  br label %38

38:                                               ; preds = %35, %33
  call void @llvm.lifetime.end.p0(i64 56, ptr nonnull %5) #18
  call void @llvm.lifetime.end.p0(i64 8, ptr nonnull %4) #18
  br label %39

39:                                               ; preds = %3, %38
  ret void
}